target datalayout = "e-m:e-p270:32:32-p271:32:32-p272:64:64-i64:64-i128:128-f80:128-n8:16:32:64-S128"
target triple = "x86_64-pc-linux-gnu"

; Function Attrs: nounwind uwtable
define internal i32 @verify_input_data_float(ptr noundef %0, i32 noundef %1, i32 noundef %2, float noundef %3) #0 {
  %5 = alloca i32, align 4
  %6 = alloca ptr, align 8
  %7 = alloca i32, align 4
  %8 = alloca i32, align 4
  %9 = alloca float, align 4
  %10 = alloca i32, align 4
  %11 = alloca i32, align 4
  %12 = alloca i32, align 4
  %13 = alloca i32, align 4
  store ptr %0, ptr %6, align 8, !tbaa !33
  store i32 %1, ptr %7, align 4, !tbaa !8
  store i32 %2, ptr %8, align 4, !tbaa !8
  store float %3, ptr %9, align 4, !tbaa !35
  call void @llvm.lifetime.start.p0(i64 4, ptr %10) #7
  call void @llvm.lifetime.start.p0(i64 4, ptr %11) #7
  call void @llvm.lifetime.start.p0(i64 4, ptr %12) #7
  store i32 0, ptr %10, align 4, !tbaa !8
  br label %14

14:                                               ; preds = %57, %4
  %15 = load i32, ptr %10, align 4, !tbaa !8
  %16 = load i32, ptr %8, align 4, !tbaa !8
  %17 = icmp slt i32 %15, %16
  br i1 %17, label %18, label %60

18:                                               ; preds = %14
  store i32 0, ptr %11, align 4, !tbaa !8
  br label %19

19:                                               ; preds = %53, %18
  %20 = load i32, ptr %11, align 4, !tbaa !8
  %21 = load i32, ptr %7, align 4, !tbaa !8
  %22 = icmp slt i32 %20, %21
  br i1 %22, label %23, label %56

23:                                               ; preds = %19
  store i32 0, ptr %12, align 4, !tbaa !8
  br label %24

24:                                               ; preds = %49, %23
  %25 = load i32, ptr %12, align 4, !tbaa !8
  %26 = icmp slt i32 %25, 3
  br i1 %26, label %27, label %52

27:                                               ; preds = %24
  %28 = load ptr, ptr %6, align 8, !tbaa !33
  %29 = load i32, ptr %10, align 4, !tbaa !8
  %30 = load i32, ptr %7, align 4, !tbaa !8
  %31 = mul nsw i32 %29, %30
  %32 = mul nsw i32 %31, 3
  %33 = load i32, ptr %11, align 4, !tbaa !8
  %34 = mul nsw i32 %33, 3
  %35 = add nsw i32 %32, %34
  %36 = load i32, ptr %12, align 4, !tbaa !8
  %37 = add nsw i32 %35, %36
  %38 = sext i32 %37 to i64
  %39 = getelementptr inbounds float, ptr %28, i64 %38
  %40 = load float, ptr %39, align 4, !tbaa !35
  %41 = load float, ptr %9, align 4, !tbaa !35
  %42 = fdiv float %40, %41
  %43 = fpext float %42 to double
  %44 = fadd double %43, 5.000000e-01
  %45 = call double @llvm.fabs.f64(double %44)
  %46 = fcmp oge double %45, 0x41DFFFFFFFC00000
  br i1 %46, label %47, label %48

47:                                               ; preds = %27
  br label %61

48:                                               ; preds = %27
  br label %49

49:                                               ; preds = %48
  %50 = load i32, ptr %12, align 4, !tbaa !8
  %51 = add nsw i32 %50, 1
  store i32 %51, ptr %12, align 4, !tbaa !8
  br label %24, !llvm.loop !56

52:                                               ; preds = %24
  br label %53

53:                                               ; preds = %52
  %54 = load i32, ptr %11, align 4, !tbaa !8
  %55 = add nsw i32 %54, 1
  store i32 %55, ptr %11, align 4, !tbaa !8
  br label %19, !llvm.loop !57

56:                                               ; preds = %19
  br label %57

57:                                               ; preds = %56
  %58 = load i32, ptr %10, align 4, !tbaa !8
  %59 = add nsw i32 %58, 1
  store i32 %59, ptr %10, align 4, !tbaa !8
  br label %14, !llvm.loop !58

60:                                               ; preds = %14
  store i32 0, ptr %5, align 4
  store i32 1, ptr %13, align 4
  br label %62

61:                                               ; preds = %47
  store i32 1, ptr %5, align 4
  store i32 1, ptr %13, align 4
  br label %62

62:                                               ; preds = %61, %60
  call void @llvm.lifetime.end.p0(i64 4, ptr %12) #7
  call void @llvm.lifetime.end.p0(i64 4, ptr %11) #7
  call void @llvm.lifetime.end.p0(i64 4, ptr %10) #7
  %63 = load i32, ptr %5, align 4
  ret i32 %63
}

; Function Attrs: nounwind uwtable
define internal i32 @quantize_float(ptr noundef %0, i32 noundef %1, i32 noundef %2, float noundef %3, ptr noundef %4) #0 {
  %6 = alloca ptr, align 8
  %7 = alloca i32, align 4
  %8 = alloca i32, align 4
  %9 = alloca float, align 4
  %10 = alloca ptr, align 8
  %11 = alloca i32, align 4
  %12 = alloca i32, align 4
  %13 = alloca i32, align 4
  store ptr %0, ptr %6, align 8, !tbaa !33
  store i32 %1, ptr %7, align 4, !tbaa !8
  store i32 %2, ptr %8, align 4, !tbaa !8
  store float %3, ptr %9, align 4, !tbaa !35
  store ptr %4, ptr %10, align 8, !tbaa !3
  call void @llvm.lifetime.start.p0(i64 4, ptr %11) #7
  call void @llvm.lifetime.start.p0(i64 4, ptr %12) #7
  call void @llvm.lifetime.start.p0(i64 4, ptr %13) #7
  store i32 0, ptr %11, align 4, !tbaa !8
  br label %14

14:                                               ; preds = %67, %5
  %15 = load i32, ptr %11, align 4, !tbaa !8
  %16 = load i32, ptr %8, align 4, !tbaa !8
  %17 = icmp slt i32 %15, %16
  br i1 %17, label %18, label %70

18:                                               ; preds = %14
  store i32 0, ptr %12, align 4, !tbaa !8
  br label %19

19:                                               ; preds = %63, %18
  %20 = load i32, ptr %12, align 4, !tbaa !8
  %21 = load i32, ptr %7, align 4, !tbaa !8
  %22 = icmp slt i32 %20, %21
  br i1 %22, label %23, label %66

23:                                               ; preds = %19
  store i32 0, ptr %13, align 4, !tbaa !8
  br label %24

24:                                               ; preds = %59, %23
  %25 = load i32, ptr %13, align 4, !tbaa !8
  %26 = icmp slt i32 %25, 3
  br i1 %26, label %27, label %62

27:                                               ; preds = %24
  %28 = load ptr, ptr %6, align 8, !tbaa !33
  %29 = load i32, ptr %11, align 4, !tbaa !8
  %30 = load i32, ptr %7, align 4, !tbaa !8
  %31 = mul nsw i32 %29, %30
  %32 = mul nsw i32 %31, 3
  %33 = load i32, ptr %12, align 4, !tbaa !8
  %34 = mul nsw i32 %33, 3
  %35 = add nsw i32 %32, %34
  %36 = load i32, ptr %13, align 4, !tbaa !8
  %37 = add nsw i32 %35, %36
  %38 = sext i32 %37 to i64
  %39 = getelementptr inbounds float, ptr %28, i64 %38
  %40 = load float, ptr %39, align 4, !tbaa !35
  %41 = load float, ptr %9, align 4, !tbaa !35
  %42 = fdiv float %40, %41
  %43 = fpext float %42 to double
  %44 = fadd double %43, 5.000000e-01
  %45 = call double @llvm.floor.f64(double %44)
  %46 = fptosi double %45 to i32
  %47 = load ptr, ptr %10, align 8, !tbaa !3
  %48 = load i32, ptr %11, align 4, !tbaa !8
  %49 = load i32, ptr %7, align 4, !tbaa !8
  %50 = mul nsw i32 %48, %49
  %51 = mul nsw i32 %50, 3
  %52 = load i32, ptr %12, align 4, !tbaa !8
  %53 = mul nsw i32 %52, 3
  %54 = add nsw i32 %51, %53
  %55 = load i32, ptr %13, align 4, !tbaa !8
  %56 = add nsw i32 %54, %55
  %57 = sext i32 %56 to i64
  %58 = getelementptr inbounds i32, ptr %47, i64 %57
  store i32 %46, ptr %58, align 4, !tbaa !8
  br label %59

59:                                               ; preds = %27
  %60 = load i32, ptr %13, align 4, !tbaa !8
  %61 = add nsw i32 %60, 1
  store i32 %61, ptr %13, align 4, !tbaa !8
  br label %24, !llvm.loop !37

62:                                               ; preds = %24
  br label %63

63:                                               ; preds = %62
  %64 = load i32, ptr %12, align 4, !tbaa !8
  %65 = add nsw i32 %64, 1
  store i32 %65, ptr %12, align 4, !tbaa !8
  br label %19, !llvm.loop !38

66:                                               ; preds = %19
  br label %67

67:                                               ; preds = %66
  %68 = load i32, ptr %11, align 4, !tbaa !8
  %69 = add nsw i32 %68, 1
  store i32 %69, ptr %11, align 4, !tbaa !8
  br label %14, !llvm.loop !39

70:                                               ; preds = %14
  %71 = load ptr, ptr %6, align 8, !tbaa !33
  %72 = load i32, ptr %7, align 4, !tbaa !8
  %73 = load i32, ptr %8, align 4, !tbaa !8
  %74 = load float, ptr %9, align 4, !tbaa !35
  %75 = call i32 @verify_input_data_float(ptr noundef %71, i32 noundef %72, i32 noundef %73, float noundef %74)
  call void @llvm.lifetime.end.p0(i64 4, ptr %13) #7
  call void @llvm.lifetime.end.p0(i64 4, ptr %12) #7
  call void @llvm.lifetime.end.p0(i64 4, ptr %11) #7
  ret i32 %75
}

; Function Attrs: nounwind uwtable
define ptr @tng_compress_pos_float(ptr noundef %0, i32 noundef %1, i32 noundef %2, float noundef %3, i32 noundef %4, ptr noundef %5, ptr noundef %6) #0 {
  %8 = alloca ptr, align 8
  %9 = alloca i32, align 4
  %10 = alloca i32, align 4
  %11 = alloca float, align 4
  %12 = alloca i32, align 4
  %13 = alloca ptr, align 8
  %14 = alloca ptr, align 8
  %15 = alloca ptr, align 8
  %16 = alloca ptr, align 8
  %17 = alloca i64, align 8
  %18 = alloca i64, align 8
  store ptr %0, ptr %8, align 8, !tbaa !33
  store i32 %1, ptr %9, align 4, !tbaa !8
  store i32 %2, ptr %10, align 4, !tbaa !8
  store float %3, ptr %11, align 4, !tbaa !35
  store i32 %4, ptr %12, align 4, !tbaa !8
  store ptr %5, ptr %13, align 8, !tbaa !3
  store ptr %6, ptr %14, align 8, !tbaa !3
  call void @llvm.lifetime.start.p0(i64 8, ptr %15) #7
  %19 = load i32, ptr %9, align 4, !tbaa !8
  %20 = load i32, ptr %10, align 4, !tbaa !8
  %21 = mul nsw i32 %19, %20
  %22 = mul nsw i32 %21, 3
  %23 = sext i32 %22 to i64
  %24 = mul i64 %23, 4
  %25 = call noalias ptr @malloc(i64 noundef %24) #8
  store ptr %25, ptr %15, align 8, !tbaa !3
  call void @llvm.lifetime.start.p0(i64 8, ptr %16) #7
  call void @llvm.lifetime.start.p0(i64 8, ptr %17) #7
  call void @llvm.lifetime.start.p0(i64 8, ptr %18) #7
  %26 = load float, ptr %11, align 4, !tbaa !35
  %27 = fpext float %26 to double
  call void @Ptngc_d_to_i32x2(double noundef %27, ptr noundef %17, ptr noundef %18)
  %28 = load ptr, ptr %8, align 8, !tbaa !33
  %29 = load i32, ptr %9, align 4, !tbaa !8
  %30 = load i32, ptr %10, align 4, !tbaa !8
  %31 = load i64, ptr %17, align 8, !tbaa !10
  %32 = load i64, ptr %18, align 8, !tbaa !10
  %33 = call double @Ptngc_i32x2_to_d(i64 noundef %31, i64 noundef %32)
  %34 = fptrunc double %33 to float
  %35 = load ptr, ptr %15, align 8, !tbaa !3
  %36 = call i32 @quantize_float(ptr noundef %28, i32 noundef %29, i32 noundef %30, float noundef %34, ptr noundef %35)
  %37 = icmp ne i32 %36, 0
  br i1 %37, label %38, label %39

38:                                               ; preds = %7
  store ptr null, ptr %16, align 8, !tbaa !12
  br label %49

39:                                               ; preds = %7
  %40 = load ptr, ptr %15, align 8, !tbaa !3
  %41 = load i32, ptr %9, align 4, !tbaa !8
  %42 = load i32, ptr %10, align 4, !tbaa !8
  %43 = load i64, ptr %17, align 8, !tbaa !10
  %44 = load i64, ptr %18, align 8, !tbaa !10
  %45 = load i32, ptr %12, align 4, !tbaa !8
  %46 = load ptr, ptr %13, align 8, !tbaa !3
  %47 = load ptr, ptr %14, align 8, !tbaa !3
  %48 = call ptr @tng_compress_pos_int(ptr noundef %40, i32 noundef %41, i32 noundef %42, i64 noundef %43, i64 noundef %44, i32 noundef %45, ptr noundef %46, ptr noundef %47)
  store ptr %48, ptr %16, align 8, !tbaa !12
  br label %49

49:                                               ; preds = %39, %38
  %50 = load ptr, ptr %15, align 8, !tbaa !3
  call void @free(ptr noundef %50) #7
  %51 = load ptr, ptr %16, align 8, !tbaa !12
  call void @llvm.lifetime.end.p0(i64 8, ptr %18) #7
  call void @llvm.lifetime.end.p0(i64 8, ptr %17) #7
  call void @llvm.lifetime.end.p0(i64 8, ptr %16) #7
  call void @llvm.lifetime.end.p0(i64 8, ptr %15) #7
  ret ptr %51
}